; Function Attrs: mustprogress nofree norecurse nosync nounwind willreturn memory(read, argmem: readwrite, inaccessiblemem: none) uwtable
define internal noundef i32 @config_output(ptr noundef captures(none) initializes((40, 48)) %0) #2 {
  %2 = load ptr, ptr %0, align 8, !tbaa !47
  %3 = getelementptr inbounds nuw i8, ptr %2, i64 72
  %4 = load ptr, ptr %3, align 8, !tbaa !23
  %5 = getelementptr inbounds nuw i8, ptr %4, i64 8
  %6 = load i32, ptr %5, align 8, !tbaa !38
  %7 = shl nsw i32 %6, 4
  %8 = getelementptr inbounds nuw i8, ptr %0, i64 44
  store i32 %7, ptr %8, align 4, !tbaa !37
  %9 = getelementptr inbounds nuw i8, ptr %0, i64 40
  store i32 %7, ptr %9, align 8, !tbaa !36
  ret i32 0
}